; Function Attrs: nounwind uwtable
define ptr @Fra_LcrManDup_rec(ptr noundef %0, ptr noundef %1, ptr noundef captures(none) %2) local_unnamed_addr #2 {
  %4 = getelementptr inbounds nuw i8, ptr %2, i64 40
  %5 = load ptr, ptr %4, align 8
  %.not = icmp eq ptr %5, null
  br i1 %.not, label %6, label %56

6:                                                ; preds = %3
  %7 = getelementptr i8, ptr %2, i64 8
  %.val = load ptr, ptr %7, align 8
  %8 = ptrtoint ptr %.val to i64
  %9 = and i64 %8, -2
  %10 = inttoptr i64 %9 to ptr
  %11 = tail call ptr @Fra_LcrManDup_rec(ptr noundef %0, ptr noundef %1, ptr noundef %10)
  %12 = getelementptr i8, ptr %2, i64 24
  %.val20 = load i64, ptr %12, align 8
  %13 = and i64 %.val20, 7
  %.not29 = icmp eq i64 %13, 4
  br i1 %.not29, label %14, label %25

14:                                               ; preds = %6
  %.val21 = load ptr, ptr %7, align 8
  %15 = ptrtoint ptr %.val21 to i64
  %16 = and i64 %15, -2
  %.not.i = icmp eq i64 %16, 0
  br i1 %.not.i, label %.sink.split, label %17

17:                                               ; preds = %14
  %18 = inttoptr i64 %16 to ptr
  %19 = getelementptr inbounds nuw i8, ptr %18, i64 40
  %20 = load ptr, ptr %19, align 8
  %21 = and i64 %15, 1
  %22 = ptrtoint ptr %20 to i64
  %23 = xor i64 %21, %22
  %24 = inttoptr i64 %23 to ptr
  br label %.sink.split

25:                                               ; preds = %6
  %26 = getelementptr i8, ptr %2, i64 16
  %.val23 = load ptr, ptr %26, align 8
  %27 = ptrtoint ptr %.val23 to i64
  %28 = and i64 %27, -2
  %29 = inttoptr i64 %28 to ptr
  %30 = tail call ptr @Fra_LcrManDup_rec(ptr noundef %0, ptr noundef %1, ptr noundef %29)
  %.val22 = load ptr, ptr %7, align 8
  %31 = ptrtoint ptr %.val22 to i64
  %32 = and i64 %31, -2
  %.not.i26 = icmp eq i64 %32, 0
  br i1 %.not.i26, label %Aig_ObjChild0Copy.exit27, label %33

33:                                               ; preds = %25
  %34 = inttoptr i64 %32 to ptr
  %35 = getelementptr inbounds nuw i8, ptr %34, i64 40
  %36 = load ptr, ptr %35, align 8
  %37 = and i64 %31, 1
  %38 = ptrtoint ptr %36 to i64
  %39 = xor i64 %37, %38
  %40 = inttoptr i64 %39 to ptr
  br label %Aig_ObjChild0Copy.exit27

Aig_ObjChild0Copy.exit27:                         ; preds = %25, %33
  %41 = phi ptr [ %40, %33 ], [ null, %25 ]
  %.val24 = load ptr, ptr %26, align 8
  %42 = ptrtoint ptr %.val24 to i64
  %43 = and i64 %42, -2
  %.not.i28 = icmp eq i64 %43, 0
  br i1 %.not.i28, label %Aig_ObjChild1Copy.exit, label %44

44:                                               ; preds = %Aig_ObjChild0Copy.exit27
  %45 = inttoptr i64 %43 to ptr
  %46 = getelementptr inbounds nuw i8, ptr %45, i64 40
  %47 = load ptr, ptr %46, align 8
  %48 = and i64 %42, 1
  %49 = ptrtoint ptr %47 to i64
  %50 = xor i64 %48, %49
  %51 = inttoptr i64 %50 to ptr
  br label %Aig_ObjChild1Copy.exit

Aig_ObjChild1Copy.exit:                           ; preds = %Aig_ObjChild0Copy.exit27, %44
  %52 = phi ptr [ %51, %44 ], [ null, %Aig_ObjChild0Copy.exit27 ]
  %.val25 = load i64, ptr %12, align 8
  %53 = trunc i64 %.val25 to i32
  %54 = and i32 %53, 7
  %55 = tail call ptr @Aig_Oper(ptr noundef %0, ptr noundef %41, ptr noundef %52, i32 noundef %54) #18
  br label %.sink.split

.sink.split:                                      ; preds = %17, %14, %Aig_ObjChild1Copy.exit
  %.sink = phi ptr [ %55, %Aig_ObjChild1Copy.exit ], [ %24, %17 ], [ null, %14 ]
  store ptr %.sink, ptr %4, align 8
  br label %56

56:                                               ; preds = %.sink.split, %3
  %.0 = phi ptr [ %5, %3 ], [ %.sink, %.sink.split ]
  ret ptr %.0
}